target datalayout = "e-m:e-p270:32:32-p271:32:32-p272:64:64-i64:64-i128:128-f80:128-n8:16:32:64-S128"
target triple = "x86_64-pc-linux-gnu"

%struct.auth_plugin_types_t = type { i32, ptr }
%struct.auth_ops_t = type { ptr, ptr, ptr, ptr, ptr, ptr, ptr, ptr, ptr, ptr, ptr, ptr, ptr, ptr, ptr, ptr }
%struct.cred_wrapper_t = type { i32, [0 x i8] }

@.str.4 = private unnamed_addr constant [8 x i8] c"unknown\00", align 1
@g_context_num = internal global i32 -1, align 4
@ops = internal global ptr null, align 8
@.str.25 = private unnamed_addr constant [39 x i8] c"%s: protocol_version %hu not supported\00", align 1
@.str.26 = private unnamed_addr constant [43 x i8] c"%s: authentication plugin %s(%u) not found\00", align 1
@__func__.auth_g_unpack = private unnamed_addr constant [14 x i8] c"auth_g_unpack\00", align 1

; Function Attrs: nounwind uwtable
define dso_local ptr @auth_get_plugin_name(i32 noundef %0) #0 {
  %2 = alloca ptr, align 8
  %3 = alloca i32, align 4
  %4 = alloca i32, align 4
  %5 = alloca i32, align 4
  store i32 %0, ptr %3, align 4
  call void @llvm.lifetime.start.p0(i64 4, ptr %4) #6
  store i32 0, ptr %4, align 4
  br label %6

6:                                                ; preds = %26, %1
  %7 = load i32, ptr %4, align 4
  %8 = sext i32 %7 to i64
  %9 = icmp ult i64 %8, 4
  br i1 %9, label %11, label %10

10:                                               ; preds = %6
  store i32 2, ptr %5, align 4
  br label %29

11:                                               ; preds = %6
  %12 = load i32, ptr %3, align 4
  %13 = load i32, ptr %4, align 4
  %14 = sext i32 %13 to i64
  %15 = getelementptr inbounds [4 x %struct.auth_plugin_types_t], ptr @auth_plugin_types, i64 0, i64 %14
  %16 = getelementptr inbounds nuw %struct.auth_plugin_types_t, ptr %15, i32 0, i32 0
  %17 = load i32, ptr %16, align 16
  %18 = icmp eq i32 %12, %17
  br i1 %18, label %19, label %25

19:                                               ; preds = %11
  %20 = load i32, ptr %4, align 4
  %21 = sext i32 %20 to i64
  %22 = getelementptr inbounds [4 x %struct.auth_plugin_types_t], ptr @auth_plugin_types, i64 0, i64 %21
  %23 = getelementptr inbounds nuw %struct.auth_plugin_types_t, ptr %22, i32 0, i32 1
  %24 = load ptr, ptr %23, align 8
  store ptr %24, ptr %2, align 8
  store i32 1, ptr %5, align 4
  br label %29

25:                                               ; preds = %11
  br label %26

26:                                               ; preds = %25
  %27 = load i32, ptr %4, align 4
  %28 = add nsw i32 %27, 1
  store i32 %28, ptr %4, align 4
  br label %6, !llvm.loop !8

29:                                               ; preds = %19, %10
  call void @llvm.lifetime.end.p0(i64 4, ptr %4) #6
  %30 = load i32, ptr %5, align 4
  switch i32 %30, label %34 [
    i32 2, label %31
    i32 1, label %32
  ]

31:                                               ; preds = %29
  store ptr @.str.4, ptr %2, align 8
  br label %32

32:                                               ; preds = %31, %29
  %33 = load ptr, ptr %2, align 8
  ret ptr %33

34:                                               ; preds = %29
  unreachable
}

; Function Attrs: nounwind uwtable
define dso_local ptr @auth_g_unpack(ptr noundef %0, i16 noundef zeroext %1) #0 {
  %3 = alloca ptr, align 8
  %4 = alloca ptr, align 8
  %5 = alloca i16, align 2
  %6 = alloca i32, align 4
  %7 = alloca ptr, align 8
  %8 = alloca i32, align 4
  %9 = alloca i32, align 4
  store ptr %0, ptr %4, align 8
  store i16 %1, ptr %5, align 2
  call void @llvm.lifetime.start.p0(i64 4, ptr %6) #6
  store i32 0, ptr %6, align 4
  call void @llvm.lifetime.start.p0(i64 8, ptr %7) #6
  %10 = load ptr, ptr %4, align 8
  %11 = icmp ne ptr %10, null
  br i1 %11, label %13, label %12

12:                                               ; preds = %2
  store ptr null, ptr %3, align 8
  store i32 1, ptr %8, align 4
  br label %75

13:                                               ; preds = %2
  %14 = load i16, ptr %5, align 2
  %15 = zext i16 %14 to i32
  %16 = icmp sge i32 %15, 10240
  br i1 %16, label %17, label %70

17:                                               ; preds = %13
  br label %18

18:                                               ; preds = %17
  %19 = load ptr, ptr %4, align 8
  %20 = call i32 @unpack32(ptr noundef %6, ptr noundef %19)
  %21 = icmp ne i32 %20, 0
  br i1 %21, label %22, label %23

22:                                               ; preds = %18
  br label %74

23:                                               ; preds = %18
  br label %24

24:                                               ; preds = %23
  br label %25

25:                                               ; preds = %24
  call void @llvm.lifetime.start.p0(i64 4, ptr %9) #6
  store i32 0, ptr %9, align 4
  br label %26

26:                                               ; preds = %60, %25
  %27 = load i32, ptr %9, align 4
  %28 = load i32, ptr @g_context_num, align 4
  %29 = icmp slt i32 %27, %28
  br i1 %29, label %31, label %30

30:                                               ; preds = %26
  store i32 5, ptr %8, align 4
  br label %63

31:                                               ; preds = %26
  %32 = load i32, ptr %6, align 4
  %33 = load ptr, ptr @ops, align 8
  %34 = load i32, ptr %9, align 4
  %35 = sext i32 %34 to i64
  %36 = getelementptr inbounds %struct.auth_ops_t, ptr %33, i64 %35
  %37 = getelementptr inbounds nuw %struct.auth_ops_t, ptr %36, i32 0, i32 0
  %38 = load ptr, ptr %37, align 8
  %39 = load i32, ptr %38, align 4
  %40 = icmp eq i32 %32, %39
  br i1 %40, label %41, label %59

41:                                               ; preds = %31
  %42 = load ptr, ptr @ops, align 8
  %43 = load i32, ptr %9, align 4
  %44 = sext i32 %43 to i64
  %45 = getelementptr inbounds %struct.auth_ops_t, ptr %42, i64 %44
  %46 = getelementptr inbounds nuw %struct.auth_ops_t, ptr %45, i32 0, i32 11
  %47 = load ptr, ptr %46, align 8
  %48 = load ptr, ptr %4, align 8
  %49 = load i16, ptr %5, align 2
  %50 = call ptr %47(ptr noundef %48, i16 noundef zeroext %49)
  store ptr %50, ptr %7, align 8
  %51 = load ptr, ptr %7, align 8
  %52 = icmp ne ptr %51, null
  br i1 %52, label %53, label %57

53:                                               ; preds = %41
  %54 = load i32, ptr %9, align 4
  %55 = load ptr, ptr %7, align 8
  %56 = getelementptr inbounds nuw %struct.cred_wrapper_t, ptr %55, i32 0, i32 0
  store i32 %54, ptr %56, align 4
  br label %57

57:                                               ; preds = %53, %41
  %58 = load ptr, ptr %7, align 8
  store ptr %58, ptr %3, align 8
  store i32 1, ptr %8, align 4
  br label %63

59:                                               ; preds = %31
  br label %60

60:                                               ; preds = %59
  %61 = load i32, ptr %9, align 4
  %62 = add nsw i32 %61, 1
  store i32 %62, ptr %9, align 4
  br label %26, !llvm.loop !16

63:                                               ; preds = %57, %30
  call void @llvm.lifetime.end.p0(i64 4, ptr %9) #6
  %64 = load i32, ptr %8, align 4
  switch i32 %64, label %75 [
    i32 5, label %65
  ]

65:                                               ; preds = %63
  %66 = load i32, ptr %6, align 4
  %67 = call ptr @auth_get_plugin_name(i32 noundef %66)
  %68 = load i32, ptr %6, align 4
  %69 = call i32 (ptr, ...) @error(ptr noundef @.str.26, ptr noundef @__func__.auth_g_unpack, ptr noundef %67, i32 noundef %68)
  store ptr null, ptr %3, align 8
  store i32 1, ptr %8, align 4
  br label %75

70:                                               ; preds = %13
  %71 = load i16, ptr %5, align 2
  %72 = zext i16 %71 to i32
  %73 = call i32 (ptr, ...) @error(ptr noundef @.str.25, ptr noundef @__func__.auth_g_unpack, i32 noundef %72)
  store ptr null, ptr %3, align 8
  store i32 1, ptr %8, align 4
  br label %75

74:                                               ; preds = %22
  store ptr null, ptr %3, align 8
  store i32 1, ptr %8, align 4
  br label %75

75:                                               ; preds = %74, %70, %65, %63, %12
  call void @llvm.lifetime.end.p0(i64 8, ptr %7) #6
  call void @llvm.lifetime.end.p0(i64 4, ptr %6) #6
  %76 = load ptr, ptr %3, align 8
  ret ptr %76
}