; Function Attrs: nounwind uwtable
define dso_local ptr @auth_g_unpack(ptr noundef %0, i16 noundef zeroext %1) local_unnamed_addr #2 {
  %3 = alloca i32, align 4
  call void @llvm.lifetime.start.p0(i64 4, ptr nonnull %3) #12
  store i32 0, ptr %3, align 4
  %.not = icmp eq ptr %0, null
  br i1 %.not, label %.thread, label %4

4:                                                ; preds = %2
  %5 = icmp ugt i16 %1, 10239
  br i1 %5, label %6, label %30

6:                                                ; preds = %4
  %7 = call i32 @unpack32(ptr noundef nonnull %3, ptr noundef nonnull %0) #12
  %.not20 = icmp eq i32 %7, 0
  br i1 %.not20, label %.preheader, label %.thread

.preheader:                                       ; preds = %6
  %8 = load i32, ptr @g_context_num, align 4
  %.not2227 = icmp sgt i32 %8, 0
  %.pre = load i32, ptr %3, align 4
  br i1 %.not2227, label %.lr.ph, label %._crit_edge.preheader

.lr.ph:                                           ; preds = %.preheader
  %9 = load ptr, ptr @ops, align 8
  %wide.trip.count = zext nneg i32 %8 to i64
  br label %10

10:                                               ; preds = %.lr.ph, %21
  %indvars.iv = phi i64 [ 0, %.lr.ph ], [ %indvars.iv.next, %21 ]
  %11 = getelementptr inbounds nuw %struct.auth_ops_t, ptr %9, i64 %indvars.iv
  %12 = load ptr, ptr %11, align 8
  %13 = load i32, ptr %12, align 4
  %14 = icmp eq i32 %.pre, %13
  br i1 %14, label %15, label %21

15:                                               ; preds = %10
  %16 = getelementptr inbounds nuw i8, ptr %11, i64 88
  %17 = load ptr, ptr %16, align 8
  %18 = call ptr %17(ptr noundef nonnull %0, i16 noundef zeroext %1) #12
  %.not21 = icmp eq ptr %18, null
  br i1 %.not21, label %.thread, label %19

19:                                               ; preds = %15
  %20 = trunc nuw nsw i64 %indvars.iv to i32
  store i32 %20, ptr %18, align 4
  br label %.thread

21:                                               ; preds = %10
  %indvars.iv.next = add nuw nsw i64 %indvars.iv, 1
  %exitcond.not = icmp eq i64 %indvars.iv.next, %wide.trip.count
  br i1 %exitcond.not, label %._crit_edge.preheader, label %10, !llvm.loop !16

._crit_edge.preheader:                            ; preds = %21, %.preheader
  br label %._crit_edge

22:                                               ; preds = %._crit_edge
  %indvars.iv.next.i = add nuw nsw i64 %indvars.iv.i, 1
  %exitcond.i = icmp eq i64 %indvars.iv.next.i, 4
  br i1 %exitcond.i, label %auth_get_plugin_name.exit, label %._crit_edge, !llvm.loop !8

._crit_edge:                                      ; preds = %._crit_edge.preheader, %22
  %indvars.iv.i = phi i64 [ %indvars.iv.next.i, %22 ], [ 0, %._crit_edge.preheader ]
  %23 = getelementptr inbounds nuw [4 x %struct.auth_plugin_types_t], ptr @auth_plugin_types, i64 0, i64 %indvars.iv.i
  %24 = load i32, ptr %23, align 16
  %25 = icmp eq i32 %.pre, %24
  br i1 %25, label %26, label %22

26:                                               ; preds = %._crit_edge
  %27 = getelementptr inbounds nuw i8, ptr %23, i64 8
  %28 = load ptr, ptr %27, align 8
  br label %auth_get_plugin_name.exit

auth_get_plugin_name.exit:                        ; preds = %22, %26
  %spec.select.i = phi ptr [ %28, %26 ], [ @.str.4, %22 ]
  %29 = call i32 (ptr, ...) @error(ptr noundef nonnull @.str.26, ptr noundef nonnull @__func__.auth_g_unpack, ptr noundef %spec.select.i, i32 noundef %.pre) #12
  br label %.thread

30:                                               ; preds = %4
  %31 = zext nneg i16 %1 to i32
  %32 = tail call i32 (ptr, ...) @error(ptr noundef nonnull @.str.25, ptr noundef nonnull @__func__.auth_g_unpack, i32 noundef %31) #12
  br label %.thread

.thread:                                          ; preds = %19, %15, %6, %2, %30, %auth_get_plugin_name.exit
  %.016 = phi ptr [ null, %auth_get_plugin_name.exit ], [ null, %30 ], [ null, %2 ], [ null, %6 ], [ null, %15 ], [ %18, %19 ]
  call void @llvm.lifetime.end.p0(i64 4, ptr nonnull %3) #12
  ret ptr %.016
}